target datalayout = "e-m:e-p270:32:32-p271:32:32-p272:64:64-i64:64-i128:128-f80:128-n8:16:32:64-S128"
target triple = "x86_64-pc-linux-gnu"

%struct.fdt_reserve_entry = type { i64, i64 }
%struct.fdt_header = type { i32, i32, i32, i32, i32, i32, i32, i32, i32, i32 }

; Function Attrs: inlinehint nounwind uwtable
define internal i32 @cpu_to_fdt32(i32 noundef %0) #2 {
  %2 = alloca i32, align 4
  store i32 %0, ptr %2, align 4
  %3 = getelementptr inbounds i8, ptr %2, i64 0
  %4 = load i8, ptr %3, align 4
  %5 = zext i8 %4 to i64
  %6 = shl i64 %5, 24
  %7 = getelementptr inbounds i8, ptr %2, i64 1
  %8 = load i8, ptr %7, align 1
  %9 = zext i8 %8 to i64
  %10 = shl i64 %9, 16
  %11 = or i64 %6, %10
  %12 = getelementptr inbounds i8, ptr %2, i64 2
  %13 = load i8, ptr %12, align 2
  %14 = zext i8 %13 to i64
  %15 = shl i64 %14, 8
  %16 = or i64 %11, %15
  %17 = getelementptr inbounds i8, ptr %2, i64 3
  %18 = load i8, ptr %17, align 1
  %19 = zext i8 %18 to i64
  %20 = or i64 %16, %19
  %21 = trunc i64 %20 to i32
  ret i32 %21
}

; Function Attrs: inlinehint nounwind uwtable
define internal ptr @fdt_mem_rsv_(ptr noundef %0, i32 noundef %1) #2 {
  %3 = alloca ptr, align 8
  %4 = alloca i32, align 4
  %5 = alloca ptr, align 8
  store ptr %0, ptr %3, align 8
  store i32 %1, ptr %4, align 4
  call void @llvm.lifetime.start.p0(i64 8, ptr %5) #7
  %6 = load ptr, ptr %3, align 8
  %7 = load ptr, ptr %3, align 8
  %8 = getelementptr inbounds nuw %struct.fdt_header, ptr %7, i32 0, i32 4
  %9 = call i32 @fdt32_ld(ptr noundef %8)
  %10 = zext i32 %9 to i64
  %11 = getelementptr inbounds nuw i8, ptr %6, i64 %10
  store ptr %11, ptr %5, align 8
  %12 = load ptr, ptr %5, align 8
  %13 = load i32, ptr %4, align 4
  %14 = sext i32 %13 to i64
  %15 = getelementptr inbounds %struct.fdt_reserve_entry, ptr %12, i64 %14
  call void @llvm.lifetime.end.p0(i64 8, ptr %5) #7
  ret ptr %15
}

; Function Attrs: inlinehint nounwind uwtable
define internal void @fdt_set_version(ptr noundef %0, i32 noundef %1) #2 {
  %3 = alloca ptr, align 8
  %4 = alloca i32, align 4
  %5 = alloca ptr, align 8
  store ptr %0, ptr %3, align 8
  store i32 %1, ptr %4, align 4
  call void @llvm.lifetime.start.p0(i64 8, ptr %5) #7
  %6 = load ptr, ptr %3, align 8
  store ptr %6, ptr %5, align 8
  %7 = load i32, ptr %4, align 4
  %8 = call i32 @cpu_to_fdt32(i32 noundef %7)
  %9 = load ptr, ptr %5, align 8
  %10 = getelementptr inbounds nuw %struct.fdt_header, ptr %9, i32 0, i32 5
  store i32 %8, ptr %10, align 4
  call void @llvm.lifetime.end.p0(i64 8, ptr %5) #7
  ret void
}

; Function Attrs: inlinehint nounwind uwtable
define internal i32 @fdt32_ld(ptr noundef %0) #2 {
  %2 = alloca ptr, align 8
  %3 = alloca ptr, align 8
  store ptr %0, ptr %2, align 8
  call void @llvm.lifetime.start.p0(i64 8, ptr %3) #7
  %4 = load ptr, ptr %2, align 8
  store ptr %4, ptr %3, align 8
  %5 = load ptr, ptr %3, align 8
  %6 = getelementptr inbounds i8, ptr %5, i64 0
  %7 = load i8, ptr %6, align 1
  %8 = zext i8 %7 to i32
  %9 = shl i32 %8, 24
  %10 = load ptr, ptr %3, align 8
  %11 = getelementptr inbounds i8, ptr %10, i64 1
  %12 = load i8, ptr %11, align 1
  %13 = zext i8 %12 to i32
  %14 = shl i32 %13, 16
  %15 = or i32 %9, %14
  %16 = load ptr, ptr %3, align 8
  %17 = getelementptr inbounds i8, ptr %16, i64 2
  %18 = load i8, ptr %17, align 1
  %19 = zext i8 %18 to i32
  %20 = shl i32 %19, 8
  %21 = or i32 %15, %20
  %22 = load ptr, ptr %3, align 8
  %23 = getelementptr inbounds i8, ptr %22, i64 3
  %24 = load i8, ptr %23, align 1
  %25 = zext i8 %24 to i32
  %26 = or i32 %21, %25
  call void @llvm.lifetime.end.p0(i64 8, ptr %3) #7
  ret i32 %26
}

; Function Attrs: inlinehint nounwind uwtable
define internal zeroext i1 @can_assume_(i32 noundef %0) #2 {
  %2 = alloca i32, align 4
  store i32 %0, ptr %2, align 4
  %3 = load i32, ptr %2, align 4
  %4 = and i32 0, %3
  %5 = icmp ne i32 %4, 0
  ret i1 %5
}

; Function Attrs: inlinehint nounwind uwtable
define internal i64 @cpu_to_fdt64(i64 noundef %0) #2 {
  %2 = alloca i64, align 8
  store i64 %0, ptr %2, align 8
  %3 = getelementptr inbounds i8, ptr %2, i64 0
  %4 = load i8, ptr %3, align 8
  %5 = zext i8 %4 to i64
  %6 = shl i64 %5, 56
  %7 = getelementptr inbounds i8, ptr %2, i64 1
  %8 = load i8, ptr %7, align 1
  %9 = zext i8 %8 to i64
  %10 = shl i64 %9, 48
  %11 = or i64 %6, %10
  %12 = getelementptr inbounds i8, ptr %2, i64 2
  %13 = load i8, ptr %12, align 2
  %14 = zext i8 %13 to i64
  %15 = shl i64 %14, 40
  %16 = or i64 %11, %15
  %17 = getelementptr inbounds i8, ptr %2, i64 3
  %18 = load i8, ptr %17, align 1
  %19 = zext i8 %18 to i64
  %20 = shl i64 %19, 32
  %21 = or i64 %16, %20
  %22 = getelementptr inbounds i8, ptr %2, i64 4
  %23 = load i8, ptr %22, align 4
  %24 = zext i8 %23 to i64
  %25 = shl i64 %24, 24
  %26 = or i64 %21, %25
  %27 = getelementptr inbounds i8, ptr %2, i64 5
  %28 = load i8, ptr %27, align 1
  %29 = zext i8 %28 to i64
  %30 = shl i64 %29, 16
  %31 = or i64 %26, %30
  %32 = getelementptr inbounds i8, ptr %2, i64 6
  %33 = load i8, ptr %32, align 2
  %34 = zext i8 %33 to i64
  %35 = shl i64 %34, 8
  %36 = or i64 %31, %35
  %37 = getelementptr inbounds i8, ptr %2, i64 7
  %38 = load i8, ptr %37, align 1
  %39 = zext i8 %38 to i64
  %40 = or i64 %36, %39
  ret i64 %40
}

; Function Attrs: inlinehint nounwind uwtable
define internal ptr @fdt_mem_rsv_w_(ptr noundef %0, i32 noundef %1) #2 {
  %3 = alloca ptr, align 8
  %4 = alloca i32, align 4
  store ptr %0, ptr %3, align 8
  store i32 %1, ptr %4, align 4
  %5 = load ptr, ptr %3, align 8
  %6 = load i32, ptr %4, align 4
  %7 = call ptr @fdt_mem_rsv_(ptr noundef %5, i32 noundef %6)
  %8 = ptrtoint ptr %7 to i64
  %9 = inttoptr i64 %8 to ptr
  ret ptr %9
}

; Function Attrs: nounwind uwtable
define internal i32 @fdt_rw_probe_(ptr noundef %0) #0 {
  %2 = alloca i32, align 4
  %3 = alloca ptr, align 8
  %4 = alloca i32, align 4
  %5 = alloca i32, align 4
  store ptr %0, ptr %3, align 8
  %6 = call zeroext i1 @can_assume_(i32 noundef 1)
  br i1 %6, label %7, label %8

7:                                                ; preds = %1
  store i32 0, ptr %2, align 4
  br label %43

8:                                                ; preds = %1
  call void @llvm.lifetime.start.p0(i64 4, ptr %4) #7
  store i32 0, ptr %4, align 4, !annotation !4
  %9 = load ptr, ptr %3, align 8
  %10 = call i32 @fdt_ro_probe_(ptr noundef %9)
  store i32 %10, ptr %4, align 4
  %11 = icmp slt i32 %10, 0
  br i1 %11, label %12, label %14

12:                                               ; preds = %8
  %13 = load i32, ptr %4, align 4
  store i32 %13, ptr %2, align 4
  store i32 1, ptr %5, align 4
  br label %15

14:                                               ; preds = %8
  store i32 0, ptr %5, align 4
  br label %15

15:                                               ; preds = %14, %12
  call void @llvm.lifetime.end.p0(i64 4, ptr %4) #7
  %16 = load i32, ptr %5, align 4
  switch i32 %16, label %45 [
    i32 0, label %17
    i32 1, label %43
  ]

17:                                               ; preds = %15
  %18 = call zeroext i1 @can_assume_(i32 noundef 4)
  br i1 %18, label %25, label %19

19:                                               ; preds = %17
  %20 = load ptr, ptr %3, align 8
  %21 = getelementptr inbounds nuw %struct.fdt_header, ptr %20, i32 0, i32 5
  %22 = call i32 @fdt32_ld(ptr noundef %21)
  %23 = icmp ult i32 %22, 17
  br i1 %23, label %24, label %25

24:                                               ; preds = %19
  store i32 -10, ptr %2, align 4
  br label %43

25:                                               ; preds = %19, %17
  %26 = load ptr, ptr %3, align 8
  %27 = load ptr, ptr %3, align 8
  %28 = getelementptr inbounds nuw %struct.fdt_header, ptr %27, i32 0, i32 9
  %29 = call i32 @fdt32_ld(ptr noundef %28)
  %30 = call i32 @fdt_blocks_misordered_(ptr noundef %26, i32 noundef 16, i32 noundef %29)
  %31 = icmp ne i32 %30, 0
  br i1 %31, label %32, label %33

32:                                               ; preds = %25
  store i32 -12, ptr %2, align 4
  br label %43

33:                                               ; preds = %25
  %34 = call zeroext i1 @can_assume_(i32 noundef 4)
  br i1 %34, label %42, label %35

35:                                               ; preds = %33
  %36 = load ptr, ptr %3, align 8
  %37 = getelementptr inbounds nuw %struct.fdt_header, ptr %36, i32 0, i32 5
  %38 = call i32 @fdt32_ld(ptr noundef %37)
  %39 = icmp ugt i32 %38, 17
  br i1 %39, label %40, label %42

40:                                               ; preds = %35
  %41 = load ptr, ptr %3, align 8
  call void @fdt_set_version(ptr noundef %41, i32 noundef 17)
  br label %42

42:                                               ; preds = %40, %35, %33
  store i32 0, ptr %2, align 4
  br label %43

43:                                               ; preds = %42, %32, %24, %15, %7
  %44 = load i32, ptr %2, align 4
  ret i32 %44

45:                                               ; preds = %15
  unreachable
}

; Function Attrs: nounwind uwtable
define dso_local i32 @fdt_add_mem_rsv(ptr noundef %0, i64 noundef %1, i64 noundef %2) #0 {
  %4 = alloca i32, align 4
  %5 = alloca ptr, align 8
  %6 = alloca i64, align 8
  %7 = alloca i64, align 8
  %8 = alloca ptr, align 8
  %9 = alloca i32, align 4
  %10 = alloca i32, align 4
  %11 = alloca i32, align 4
  store ptr %0, ptr %5, align 8
  store i64 %1, ptr %6, align 8
  store i64 %2, ptr %7, align 8
  call void @llvm.lifetime.start.p0(i64 8, ptr %8) #7
  store ptr null, ptr %8, align 8, !annotation !4
  call void @llvm.lifetime.start.p0(i64 4, ptr %9) #7
  store i32 0, ptr %9, align 4, !annotation !4
  call void @llvm.lifetime.start.p0(i64 4, ptr %10) #7
  store i32 0, ptr %10, align 4, !annotation !4
  %12 = load ptr, ptr %5, align 8
  %13 = call i32 @fdt_rw_probe_(ptr noundef %12)
  store i32 %13, ptr %10, align 4
  %14 = icmp ne i32 %13, 0
  br i1 %14, label %15, label %17

15:                                               ; preds = %3
  %16 = load i32, ptr %10, align 4
  store i32 %16, ptr %4, align 4
  store i32 1, ptr %11, align 4
  br label %18

17:                                               ; preds = %3
  store i32 0, ptr %11, align 4
  br label %18

18:                                               ; preds = %17, %15
  call void @llvm.lifetime.end.p0(i64 4, ptr %10) #7
  %19 = load i32, ptr %11, align 4
  switch i32 %19, label %41 [
    i32 0, label %20
  ]

20:                                               ; preds = %18
  %21 = load ptr, ptr %5, align 8
  %22 = load ptr, ptr %5, align 8
  %23 = call i32 @fdt_num_mem_rsv(ptr noundef %22)
  %24 = call ptr @fdt_mem_rsv_w_(ptr noundef %21, i32 noundef %23)
  store ptr %24, ptr %8, align 8
  %25 = load ptr, ptr %5, align 8
  %26 = load ptr, ptr %8, align 8
  %27 = call i32 @fdt_splice_mem_rsv_(ptr noundef %25, ptr noundef %26, i32 noundef 0, i32 noundef 1)
  store i32 %27, ptr %9, align 4
  %28 = load i32, ptr %9, align 4
  %29 = icmp ne i32 %28, 0
  br i1 %29, label %30, label %32

30:                                               ; preds = %20
  %31 = load i32, ptr %9, align 4
  store i32 %31, ptr %4, align 4
  store i32 1, ptr %11, align 4
  br label %41

32:                                               ; preds = %20
  %33 = load i64, ptr %6, align 8
  %34 = call i64 @cpu_to_fdt64(i64 noundef %33)
  %35 = load ptr, ptr %8, align 8
  %36 = getelementptr inbounds nuw %struct.fdt_reserve_entry, ptr %35, i32 0, i32 0
  store i64 %34, ptr %36, align 8
  %37 = load i64, ptr %7, align 8
  %38 = call i64 @cpu_to_fdt64(i64 noundef %37)
  %39 = load ptr, ptr %8, align 8
  %40 = getelementptr inbounds nuw %struct.fdt_reserve_entry, ptr %39, i32 0, i32 1
  store i64 %38, ptr %40, align 8
  store i32 0, ptr %4, align 4
  store i32 1, ptr %11, align 4
  br label %41

41:                                               ; preds = %32, %30, %18
  call void @llvm.lifetime.end.p0(i64 4, ptr %9) #7
  call void @llvm.lifetime.end.p0(i64 8, ptr %8) #7
  %42 = load i32, ptr %4, align 4
  ret i32 %42
}