; Function Attrs: nounwind uwtable
define dso_local range(i32 -2147483648, 1) i32 @fdt_add_mem_rsv(ptr noundef %0, i64 noundef %1, i64 noundef %2) local_unnamed_addr #0 {
  %4 = tail call i32 @fdt_ro_probe_(ptr noundef %0) #9
  %5 = icmp sgt i32 %4, -1
  br i1 %5, label %6, label %fdt_rw_probe_.exit.thread

6:                                                ; preds = %3
  %7 = getelementptr inbounds nuw i8, ptr %0, i64 20
  %8 = load i8, ptr %7, align 1
  %9 = zext i8 %8 to i32
  %10 = shl nuw i32 %9, 24
  %11 = getelementptr inbounds nuw i8, ptr %0, i64 21
  %12 = load i8, ptr %11, align 1
  %13 = zext i8 %12 to i32
  %14 = shl nuw nsw i32 %13, 16
  %15 = or disjoint i32 %14, %10
  %16 = getelementptr inbounds nuw i8, ptr %0, i64 22
  %17 = load i8, ptr %16, align 1
  %18 = zext i8 %17 to i32
  %19 = shl nuw nsw i32 %18, 8
  %20 = or disjoint i32 %15, %19
  %21 = getelementptr inbounds nuw i8, ptr %0, i64 23
  %22 = load i8, ptr %21, align 1
  %23 = zext i8 %22 to i32
  %24 = or disjoint i32 %20, %23
  %25 = icmp ult i32 %24, 17
  br i1 %25, label %fdt_rw_probe_.exit.thread, label %26

26:                                               ; preds = %6
  %27 = getelementptr inbounds nuw i8, ptr %0, i64 36
  %28 = load i8, ptr %27, align 1
  %29 = zext i8 %28 to i32
  %30 = shl nuw i32 %29, 24
  %31 = getelementptr inbounds nuw i8, ptr %0, i64 37
  %32 = load i8, ptr %31, align 1
  %33 = zext i8 %32 to i32
  %34 = shl nuw nsw i32 %33, 16
  %35 = or disjoint i32 %34, %30
  %36 = getelementptr inbounds nuw i8, ptr %0, i64 38
  %37 = load i8, ptr %36, align 1
  %38 = zext i8 %37 to i32
  %39 = shl nuw nsw i32 %38, 8
  %40 = or disjoint i32 %35, %39
  %41 = getelementptr inbounds nuw i8, ptr %0, i64 39
  %42 = load i8, ptr %41, align 1
  %43 = zext i8 %42 to i32
  %44 = or disjoint i32 %40, %43
  %45 = tail call fastcc i32 @fdt_blocks_misordered_(ptr noundef nonnull %0, i32 noundef 16, i32 noundef %44)
  %.not.i = icmp eq i32 %45, 0
  br i1 %.not.i, label %46, label %fdt_rw_probe_.exit.thread

46:                                               ; preds = %26
  %.not9.i = icmp eq i32 %24, 17
  br i1 %.not9.i, label %fdt_rw_probe_.exit, label %47

47:                                               ; preds = %46
  store i32 285212672, ptr %7, align 4
  br label %fdt_rw_probe_.exit

fdt_rw_probe_.exit:                               ; preds = %47, %46
  %48 = tail call i32 @fdt_num_mem_rsv(ptr noundef nonnull %0) #9
  %49 = getelementptr inbounds nuw i8, ptr %0, i64 16
  %50 = load i8, ptr %49, align 1
  %51 = zext i8 %50 to i64
  %52 = shl nuw nsw i64 %51, 24
  %53 = getelementptr inbounds nuw i8, ptr %0, i64 17
  %54 = load i8, ptr %53, align 1
  %55 = zext i8 %54 to i64
  %56 = shl nuw nsw i64 %55, 16
  %57 = or disjoint i64 %56, %52
  %58 = getelementptr inbounds nuw i8, ptr %0, i64 18
  %59 = load i8, ptr %58, align 1
  %60 = zext i8 %59 to i64
  %61 = shl nuw nsw i64 %60, 8
  %62 = or disjoint i64 %57, %61
  %63 = getelementptr inbounds nuw i8, ptr %0, i64 19
  %64 = load i8, ptr %63, align 1
  %65 = zext i8 %64 to i64
  %66 = or disjoint i64 %62, %65
  %67 = getelementptr inbounds nuw i8, ptr %0, i64 %66
  %68 = sext i32 %48 to i64
  %69 = getelementptr inbounds %struct.fdt_reserve_entry, ptr %67, i64 %68
  %70 = tail call fastcc i32 @fdt_splice_mem_rsv_(ptr noundef nonnull %0, ptr noundef nonnull %69, i32 noundef 0, i32 noundef 1)
  %.not15 = icmp eq i32 %70, 0
  br i1 %.not15, label %71, label %fdt_rw_probe_.exit.thread

71:                                               ; preds = %fdt_rw_probe_.exit
  %72 = tail call noundef i64 @llvm.bswap.i64(i64 %1)
  store i64 %72, ptr %69, align 8
  %73 = tail call noundef i64 @llvm.bswap.i64(i64 %2)
  %74 = getelementptr inbounds nuw i8, ptr %69, i64 8
  store i64 %73, ptr %74, align 8
  br label %fdt_rw_probe_.exit.thread

fdt_rw_probe_.exit.thread:                        ; preds = %26, %6, %3, %fdt_rw_probe_.exit, %71
  %.1 = phi i32 [ 0, %71 ], [ %70, %fdt_rw_probe_.exit ], [ -12, %26 ], [ -10, %6 ], [ %4, %3 ]
  ret i32 %.1
}